; Function Attrs: mustprogress nofree norecurse nosync nounwind willreturn memory(argmem: readwrite) uwtable
define dso_local noundef nonnull align 8 dereferenceable(8) ptr @_ZN4i18n12phonenumbers11UnicodeText14const_iteratoraSERKS2_(ptr noundef nonnull returned writeonly align 8 dereferenceable(8) %0, ptr noundef nonnull readonly align 8 dereferenceable(8) %1) local_unnamed_addr #10 align 2 {
  %.not = icmp eq ptr %1, %0
  br i1 %.not, label %5, label %3

3:                                                ; preds = %2
  %4 = load ptr, ptr %1, align 8, !tbaa !4
  store ptr %4, ptr %0, align 8, !tbaa !4
  br label %5

5:                                                ; preds = %3, %2
  ret ptr %0
}